target datalayout = "e-m:e-p270:32:32-p271:32:32-p272:64:64-i64:64-i128:128-f80:128-n8:16:32:64-S128"
target triple = "x86_64-pc-linux-gnu"

%struct.ParallelExecutorInfo = type { ptr, ptr, ptr, ptr, ptr, ptr, ptr, i64, i8, ptr, ptr }
%struct.ParallelContext = type { %struct.dlist_node, i32, i32, i32, i32, ptr, ptr, ptr, %struct.shm_toc_estimator, ptr, ptr, ptr, ptr, i32, ptr }
%struct.dlist_node = type { ptr, ptr }
%struct.shm_toc_estimator = type { i64, i64 }
%struct.ParallelWorkerInfo = type { ptr, ptr }

; Function Attrs: nounwind uwtable
define dso_local void @ExecParallelCreateReaders(ptr noundef %0) #0 {
  %2 = alloca ptr, align 8
  %3 = alloca i32, align 4
  %4 = alloca i32, align 4
  store ptr %0, ptr %2, align 8
  call void @llvm.lifetime.start.p0(i64 4, ptr %3) #8
  %5 = load ptr, ptr %2, align 8
  %6 = getelementptr inbounds nuw %struct.ParallelExecutorInfo, ptr %5, i32 0, i32 1
  %7 = load ptr, ptr %6, align 8
  %8 = getelementptr inbounds nuw %struct.ParallelContext, ptr %7, i32 0, i32 4
  %9 = load i32, ptr %8, align 4
  store i32 %9, ptr %3, align 4
  call void @llvm.lifetime.start.p0(i64 4, ptr %4) #8
  %10 = load i32, ptr %3, align 4
  %11 = icmp sgt i32 %10, 0
  br i1 %11, label %12, label %59

12:                                               ; preds = %1
  %13 = load i32, ptr %3, align 4
  %14 = sext i32 %13 to i64
  %15 = mul i64 %14, 8
  %16 = call ptr @palloc(i64 noundef %15)
  %17 = load ptr, ptr %2, align 8
  %18 = getelementptr inbounds nuw %struct.ParallelExecutorInfo, ptr %17, i32 0, i32 10
  store ptr %16, ptr %18, align 8
  store i32 0, ptr %4, align 4
  br label %19

19:                                               ; preds = %55, %12
  %20 = load i32, ptr %4, align 4
  %21 = load i32, ptr %3, align 4
  %22 = icmp slt i32 %20, %21
  br i1 %22, label %23, label %58

23:                                               ; preds = %19
  %24 = load ptr, ptr %2, align 8
  %25 = getelementptr inbounds nuw %struct.ParallelExecutorInfo, ptr %24, i32 0, i32 9
  %26 = load ptr, ptr %25, align 8
  %27 = load i32, ptr %4, align 4
  %28 = sext i32 %27 to i64
  %29 = getelementptr inbounds ptr, ptr %26, i64 %28
  %30 = load ptr, ptr %29, align 8
  %31 = load ptr, ptr %2, align 8
  %32 = getelementptr inbounds nuw %struct.ParallelExecutorInfo, ptr %31, i32 0, i32 1
  %33 = load ptr, ptr %32, align 8
  %34 = getelementptr inbounds nuw %struct.ParallelContext, ptr %33, i32 0, i32 12
  %35 = load ptr, ptr %34, align 8
  %36 = load i32, ptr %4, align 4
  %37 = sext i32 %36 to i64
  %38 = getelementptr inbounds %struct.ParallelWorkerInfo, ptr %35, i64 %37
  %39 = getelementptr inbounds nuw %struct.ParallelWorkerInfo, ptr %38, i32 0, i32 0
  %40 = load ptr, ptr %39, align 8
  call void @shm_mq_set_handle(ptr noundef %30, ptr noundef %40)
  %41 = load ptr, ptr %2, align 8
  %42 = getelementptr inbounds nuw %struct.ParallelExecutorInfo, ptr %41, i32 0, i32 9
  %43 = load ptr, ptr %42, align 8
  %44 = load i32, ptr %4, align 4
  %45 = sext i32 %44 to i64
  %46 = getelementptr inbounds ptr, ptr %43, i64 %45
  %47 = load ptr, ptr %46, align 8
  %48 = call ptr @CreateTupleQueueReader(ptr noundef %47)
  %49 = load ptr, ptr %2, align 8
  %50 = getelementptr inbounds nuw %struct.ParallelExecutorInfo, ptr %49, i32 0, i32 10
  %51 = load ptr, ptr %50, align 8
  %52 = load i32, ptr %4, align 4
  %53 = sext i32 %52 to i64
  %54 = getelementptr inbounds ptr, ptr %51, i64 %53
  store ptr %48, ptr %54, align 8
  br label %55

55:                                               ; preds = %23
  %56 = load i32, ptr %4, align 4
  %57 = add i32 %56, 1
  store i32 %57, ptr %4, align 4
  br label %19, !llvm.loop !12

58:                                               ; preds = %19
  br label %59

59:                                               ; preds = %58, %1
  call void @llvm.lifetime.end.p0(i64 4, ptr %4) #8
  call void @llvm.lifetime.end.p0(i64 4, ptr %3) #8
  ret void
}