; Function Attrs: nounwind uwtable
define dso_local void @ExecParallelCreateReaders(ptr noundef captures(none) %0) local_unnamed_addr #0 {
  %2 = getelementptr inbounds nuw i8, ptr %0, i64 8
  %3 = load ptr, ptr %2, align 8
  %4 = getelementptr inbounds nuw i8, ptr %3, i64 28
  %5 = load i32, ptr %4, align 4
  %6 = icmp sgt i32 %5, 0
  br i1 %6, label %7, label %.loopexit

7:                                                ; preds = %1
  %8 = zext nneg i32 %5 to i64
  %9 = shl nuw nsw i64 %8, 3
  %10 = tail call ptr @palloc(i64 noundef %9) #9
  %11 = getelementptr inbounds nuw i8, ptr %0, i64 80
  store ptr %10, ptr %11, align 8
  %12 = getelementptr inbounds nuw i8, ptr %0, i64 72
  br label %13

13:                                               ; preds = %7, %13
  %indvars.iv = phi i64 [ 0, %7 ], [ %indvars.iv.next, %13 ]
  %14 = load ptr, ptr %12, align 8
  %15 = getelementptr inbounds nuw ptr, ptr %14, i64 %indvars.iv
  %16 = load ptr, ptr %15, align 8
  %17 = load ptr, ptr %2, align 8
  %18 = getelementptr inbounds nuw i8, ptr %17, i64 96
  %19 = load ptr, ptr %18, align 8
  %20 = getelementptr inbounds nuw %struct.ParallelWorkerInfo, ptr %19, i64 %indvars.iv
  %21 = load ptr, ptr %20, align 8
  tail call void @shm_mq_set_handle(ptr noundef %16, ptr noundef %21) #9
  %22 = load ptr, ptr %12, align 8
  %23 = getelementptr inbounds nuw ptr, ptr %22, i64 %indvars.iv
  %24 = load ptr, ptr %23, align 8
  %25 = tail call ptr @CreateTupleQueueReader(ptr noundef %24) #9
  %26 = load ptr, ptr %11, align 8
  %27 = getelementptr inbounds nuw ptr, ptr %26, i64 %indvars.iv
  store ptr %25, ptr %27, align 8
  %indvars.iv.next = add nuw nsw i64 %indvars.iv, 1
  %exitcond.not = icmp eq i64 %indvars.iv.next, %8
  br i1 %exitcond.not, label %.loopexit, label %13, !llvm.loop !11

.loopexit:                                        ; preds = %13, %1
  ret void
}